; Function Attrs: nounwind uwtable
define dso_local noundef i32 @_ZThn88_N4node19TraceSigintWatchdog12HandleSigintEv(ptr noundef %this) unnamed_addr #8 align 2 {
entry:
  %handle_.i = getelementptr inbounds i8, ptr %this, i64 16
  %call.i = tail call i32 @uv_async_send(ptr noundef nonnull %handle_.i) #15
  %cmp.not.i = icmp eq i32 %call.i, 0
  br i1 %cmp.not.i, label %_ZN4node19TraceSigintWatchdog12HandleSigintEv.exit, label %do.body4.i

do.body4.i:                                       ; preds = %entry
  tail call void @_ZN4node6AssertERKNS_13AssertionInfoE(ptr noundef nonnull align 8 dereferenceable(24) @_ZZN4node19TraceSigintWatchdog12HandleSigintEvE4args) #15
  tail call void @abort() #16
  unreachable

_ZN4node19TraceSigintWatchdog12HandleSigintEv.exit: ; preds = %entry
  %0 = getelementptr inbounds i8, ptr %this, i64 -88
  %realm_.i.i = getelementptr inbounds i8, ptr %this, i64 -72
  %1 = load ptr, ptr %realm_.i.i, align 8
  %env_.i.i.i = getelementptr inbounds i8, ptr %1, i64 176
  %2 = load ptr, ptr %env_.i.i.i, align 8
  %isolate_.i.i = getelementptr inbounds i8, ptr %2, i64 88
  %3 = load ptr, ptr %isolate_.i.i, align 8
  tail call void @_ZN2v87Isolate16RequestInterruptEPFvPS0_PvES2_(ptr noundef nonnull align 1 dereferenceable(1) %3, ptr noundef nonnull @"_ZZN4node19TraceSigintWatchdog12HandleSigintEvEN3$_08__invokeEPN2v87IsolateEPv", ptr noundef nonnull %0) #15
  ret i32 0
}